; Function Attrs: nounwind uwtable
define range(i32 -1, 1) i32 @pqCheckOutBufferSpace(i64 noundef %0, ptr noundef %1) local_unnamed_addr #2 {
  %3 = getelementptr inbounds nuw i8, ptr %1, i64 1032
  %4 = load i32, ptr %3, align 8
  %5 = sext i32 %4 to i64
  %.not = icmp ugt i64 %0, %5
  br i1 %.not, label %.preheader, label %31

.preheader:                                       ; preds = %2, %.preheader
  %.0 = phi i32 [ %6, %.preheader ], [ %4, %2 ]
  %6 = shl i32 %.0, 1
  %7 = icmp sgt i32 %6, 0
  %8 = sext i32 %6 to i64
  %9 = icmp ugt i64 %0, %8
  %10 = and i1 %7, %9
  br i1 %10, label %.preheader, label %11, !llvm.loop !3

11:                                               ; preds = %.preheader
  %.not44 = xor i1 %7, true
  %or.cond = or i1 %9, %.not44
  br i1 %or.cond, label %.preheader75, label %12

.preheader75:                                     ; preds = %._crit_edge, %11
  %.1.ph = phi i32 [ %4, %11 ], [ %.pre, %._crit_edge ]
  br label %17

12:                                               ; preds = %11
  %13 = getelementptr inbounds nuw i8, ptr %1, i64 1024
  %14 = load ptr, ptr %13, align 8
  %15 = tail call ptr @realloc(ptr noundef %14, i64 noundef %8) #18
  %.not41 = icmp eq ptr %15, null
  br i1 %.not41, label %._crit_edge, label %16

._crit_edge:                                      ; preds = %12
  %.pre = load i32, ptr %3, align 8
  br label %.preheader75

16:                                               ; preds = %12
  store ptr %15, ptr %13, align 8
  store i32 %6, ptr %3, align 8
  br label %31

17:                                               ; preds = %.preheader75, %17
  %.1 = phi i32 [ %18, %17 ], [ %.1.ph, %.preheader75 ]
  %18 = add i32 %.1, 8192
  %19 = icmp sgt i32 %18, 0
  %20 = sext i32 %18 to i64
  %21 = icmp ugt i64 %0, %20
  %22 = and i1 %19, %21
  br i1 %22, label %17, label %23, !llvm.loop !5

23:                                               ; preds = %17
  %.not45 = xor i1 %19, true
  %or.cond46 = or i1 %21, %.not45
  br i1 %or.cond46, label %29, label %24

24:                                               ; preds = %23
  %25 = getelementptr inbounds nuw i8, ptr %1, i64 1024
  %26 = load ptr, ptr %25, align 8
  %27 = tail call ptr @realloc(ptr noundef %26, i64 noundef %20) #18
  %.not43 = icmp eq ptr %27, null
  br i1 %.not43, label %29, label %28

28:                                               ; preds = %24
  store ptr %27, ptr %25, align 8
  store i32 %18, ptr %3, align 8
  br label %31

29:                                               ; preds = %24, %23
  %30 = getelementptr inbounds nuw i8, ptr %1, i64 1120
  tail call void @appendPQExpBufferStr(ptr noundef nonnull %30, ptr noundef nonnull @.str.2) #19
  br label %31

31:                                               ; preds = %2, %29, %28, %16
  %.033 = phi i32 [ 0, %16 ], [ 0, %28 ], [ -1, %29 ], [ 0, %2 ]
  ret i32 %.033
}